; Function Attrs: mustprogress nounwind uwtable
define dso_local void @_ZN4llvm12IRSimilarity17IRInstructionDataC2ERNS0_21IRInstructionDataListE(ptr noundef nonnull align 8 dereferenceable(168) initializes((0, 24)) %0, ptr noundef nonnull align 8 dereferenceable(16) %1) unnamed_addr #0 align 2 {
  %3 = getelementptr inbounds nuw i8, ptr %0, i64 24
  %4 = getelementptr inbounds nuw i8, ptr %0, i64 40
  tail call void @llvm.memset.p0.i64(ptr noundef nonnull align 8 dereferenceable(24) %0, i8 0, i64 24, i1 false)
  tail call void @_ZN4llvm15SmallVectorBaseIjEC2EPvm(ptr noundef nonnull align 8 dereferenceable(48) %3, ptr noundef nonnull %4, i64 noundef 4) #24
  %5 = getelementptr inbounds nuw i8, ptr %0, i64 72
  store i8 0, ptr %5, align 8
  %6 = getelementptr inbounds nuw i8, ptr %0, i64 80
  store i8 0, ptr %6, align 8
  %7 = getelementptr inbounds nuw i8, ptr %0, i64 120
  store i8 0, ptr %7, align 8
  %8 = getelementptr inbounds nuw i8, ptr %0, i64 128
  %9 = getelementptr inbounds nuw i8, ptr %0, i64 144
  tail call void @_ZN4llvm15SmallVectorBaseIjEC2EPvm(ptr noundef nonnull align 8 dereferenceable(32) %8, ptr noundef nonnull %9, i64 noundef 4) #24
  %10 = getelementptr inbounds nuw i8, ptr %0, i64 160
  store ptr %1, ptr %10, align 8
  ret void
}